target datalayout = "e-m:e-p270:32:32-p271:32:32-p272:64:64-i64:64-i128:128-f80:128-n8:16:32:64-S128"
target triple = "x86_64-pc-linux-gnu"

%struct.data_parser_dump_cli_ctxt_t = type { i32, i32, ptr, ptr, ptr }
%struct.openapi_resp_liststeps_info_t = type { ptr, ptr, ptr, ptr }

@exit_code = external global i32, align 4
@mime_type = external global ptr, align 8
@data_parser = external global ptr, align 8

; Function Attrs: nounwind uwtable
define internal void @_dump_liststeps(ptr noundef %0, i32 noundef %1, ptr noundef %2) #0 {
  %4 = alloca ptr, align 8
  %5 = alloca i32, align 4
  %6 = alloca ptr, align 8
  %7 = alloca i32, align 4
  %8 = alloca %struct.openapi_resp_liststeps_info_t, align 8
  %9 = alloca %struct.data_parser_dump_cli_ctxt_t, align 8
  %10 = alloca ptr, align 8
  store ptr %0, ptr %4, align 8
  store i32 %1, ptr %5, align 4
  store ptr %2, ptr %6, align 8
  call void @llvm.lifetime.start.p0(i64 4, ptr %7) #9
  call void @llvm.lifetime.start.p0(i64 32, ptr %8) #9
  call void @llvm.memset.p0.i64(ptr align 8 %8, i8 0, i64 32, i1 false)
  %11 = getelementptr inbounds nuw %struct.openapi_resp_liststeps_info_t, ptr %8, i32 0, i32 3
  %12 = load ptr, ptr %4, align 8
  store ptr %12, ptr %11, align 8
  br label %13

13:                                               ; preds = %3
  call void @llvm.lifetime.start.p0(i64 32, ptr %9) #9
  %14 = getelementptr inbounds nuw %struct.data_parser_dump_cli_ctxt_t, ptr %9, i32 0, i32 0
  store i32 463606195, ptr %14, align 8
  %15 = getelementptr inbounds nuw %struct.data_parser_dump_cli_ctxt_t, ptr %9, i32 0, i32 1
  store i32 0, ptr %15, align 4
  %16 = getelementptr inbounds nuw %struct.data_parser_dump_cli_ctxt_t, ptr %9, i32 0, i32 2
  store ptr null, ptr %16, align 8
  %17 = getelementptr inbounds nuw %struct.data_parser_dump_cli_ctxt_t, ptr %9, i32 0, i32 3
  store ptr null, ptr %17, align 8
  %18 = getelementptr inbounds nuw %struct.data_parser_dump_cli_ctxt_t, ptr %9, i32 0, i32 4
  %19 = load ptr, ptr @data_parser, align 8
  store ptr %19, ptr %18, align 8
  call void @llvm.lifetime.start.p0(i64 8, ptr %10) #9
  store ptr %8, ptr %10, align 8
  %20 = getelementptr inbounds nuw %struct.openapi_resp_liststeps_info_t, ptr %8, i32 0, i32 0
  %21 = load ptr, ptr %20, align 8
  %22 = icmp ne ptr %21, null
  br i1 %22, label %29, label %23

23:                                               ; preds = %13
  %24 = load i32, ptr %5, align 4
  %25 = load ptr, ptr %6, align 8
  %26 = load ptr, ptr @mime_type, align 8
  %27 = call ptr @data_parser_cli_meta(i32 noundef %24, ptr noundef %25, ptr noundef %26)
  %28 = getelementptr inbounds nuw %struct.openapi_resp_liststeps_info_t, ptr %8, i32 0, i32 0
  store ptr %27, ptr %28, align 8
  br label %29

29:                                               ; preds = %23, %13
  %30 = getelementptr inbounds nuw %struct.openapi_resp_liststeps_info_t, ptr %8, i32 0, i32 1
  %31 = load ptr, ptr %30, align 8
  %32 = icmp ne ptr %31, null
  br i1 %32, label %37, label %33

33:                                               ; preds = %29
  %34 = call ptr @list_create(ptr noundef @free_openapi_resp_error)
  %35 = getelementptr inbounds nuw %struct.data_parser_dump_cli_ctxt_t, ptr %9, i32 0, i32 2
  store ptr %34, ptr %35, align 8
  %36 = getelementptr inbounds nuw %struct.openapi_resp_liststeps_info_t, ptr %8, i32 0, i32 1
  store ptr %34, ptr %36, align 8
  br label %41

37:                                               ; preds = %29
  %38 = getelementptr inbounds nuw %struct.openapi_resp_liststeps_info_t, ptr %8, i32 0, i32 1
  %39 = load ptr, ptr %38, align 8
  %40 = getelementptr inbounds nuw %struct.data_parser_dump_cli_ctxt_t, ptr %9, i32 0, i32 2
  store ptr %39, ptr %40, align 8
  br label %41

41:                                               ; preds = %37, %33
  %42 = getelementptr inbounds nuw %struct.openapi_resp_liststeps_info_t, ptr %8, i32 0, i32 2
  %43 = load ptr, ptr %42, align 8
  %44 = icmp ne ptr %43, null
  br i1 %44, label %49, label %45

45:                                               ; preds = %41
  %46 = call ptr @list_create(ptr noundef @free_openapi_resp_warning)
  %47 = getelementptr inbounds nuw %struct.data_parser_dump_cli_ctxt_t, ptr %9, i32 0, i32 3
  store ptr %46, ptr %47, align 8
  %48 = getelementptr inbounds nuw %struct.openapi_resp_liststeps_info_t, ptr %8, i32 0, i32 2
  store ptr %46, ptr %48, align 8
  br label %53

49:                                               ; preds = %41
  %50 = getelementptr inbounds nuw %struct.openapi_resp_liststeps_info_t, ptr %8, i32 0, i32 2
  %51 = load ptr, ptr %50, align 8
  %52 = getelementptr inbounds nuw %struct.data_parser_dump_cli_ctxt_t, ptr %9, i32 0, i32 3
  store ptr %51, ptr %52, align 8
  br label %53

53:                                               ; preds = %49, %45
  %54 = load ptr, ptr %10, align 8
  %55 = load ptr, ptr @mime_type, align 8
  %56 = load ptr, ptr @data_parser, align 8
  %57 = getelementptr inbounds nuw %struct.openapi_resp_liststeps_info_t, ptr %8, i32 0, i32 0
  %58 = load ptr, ptr %57, align 8
  %59 = call i32 @data_parser_dump_cli_stdout(i32 noundef 378, ptr noundef %54, i32 noundef 32, ptr noundef null, ptr noundef %55, ptr noundef %56, ptr noundef %9, ptr noundef %58)
  store i32 %59, ptr %7, align 4
  br label %60

60:                                               ; preds = %53
  %61 = load ptr, ptr %10, align 8
  %62 = icmp ne ptr %61, null
  br i1 %62, label %63, label %97

63:                                               ; preds = %60
  br label %64

64:                                               ; preds = %63
  %65 = load ptr, ptr %10, align 8
  %66 = getelementptr inbounds nuw %struct.openapi_resp_liststeps_info_t, ptr %65, i32 0, i32 2
  %67 = load ptr, ptr %66, align 8
  %68 = icmp ne ptr %67, null
  br i1 %68, label %69, label %73

69:                                               ; preds = %64
  %70 = load ptr, ptr %10, align 8
  %71 = getelementptr inbounds nuw %struct.openapi_resp_liststeps_info_t, ptr %70, i32 0, i32 2
  %72 = load ptr, ptr %71, align 8
  call void @list_destroy(ptr noundef %72)
  br label %73

73:                                               ; preds = %69, %64
  %74 = load ptr, ptr %10, align 8
  %75 = getelementptr inbounds nuw %struct.openapi_resp_liststeps_info_t, ptr %74, i32 0, i32 2
  store ptr null, ptr %75, align 8
  br label %76

76:                                               ; preds = %73
  br label %77

77:                                               ; preds = %76
  br label %78

78:                                               ; preds = %77
  %79 = load ptr, ptr %10, align 8
  %80 = getelementptr inbounds nuw %struct.openapi_resp_liststeps_info_t, ptr %79, i32 0, i32 1
  %81 = load ptr, ptr %80, align 8
  %82 = icmp ne ptr %81, null
  br i1 %82, label %83, label %87

83:                                               ; preds = %78
  %84 = load ptr, ptr %10, align 8
  %85 = getelementptr inbounds nuw %struct.openapi_resp_liststeps_info_t, ptr %84, i32 0, i32 1
  %86 = load ptr, ptr %85, align 8
  call void @list_destroy(ptr noundef %86)
  br label %87

87:                                               ; preds = %83, %78
  %88 = load ptr, ptr %10, align 8
  %89 = getelementptr inbounds nuw %struct.openapi_resp_liststeps_info_t, ptr %88, i32 0, i32 1
  store ptr null, ptr %89, align 8
  br label %90

90:                                               ; preds = %87
  br label %91

91:                                               ; preds = %90
  %92 = load ptr, ptr %10, align 8
  %93 = getelementptr inbounds nuw %struct.openapi_resp_liststeps_info_t, ptr %92, i32 0, i32 0
  %94 = load ptr, ptr %93, align 8
  call void @free_openapi_resp_meta(ptr noundef %94)
  %95 = load ptr, ptr %10, align 8
  %96 = getelementptr inbounds nuw %struct.openapi_resp_liststeps_info_t, ptr %95, i32 0, i32 0
  store ptr null, ptr %96, align 8
  br label %97

97:                                               ; preds = %91, %60
  br label %98

98:                                               ; preds = %97
  br label %99

99:                                               ; preds = %98
  call void @llvm.lifetime.end.p0(i64 8, ptr %10) #9
  call void @llvm.lifetime.end.p0(i64 32, ptr %9) #9
  br label %100

100:                                              ; preds = %99
  br label %101

101:                                              ; preds = %100
  %102 = load i32, ptr %7, align 4
  %103 = icmp ne i32 %102, 0
  br i1 %103, label %104, label %105

104:                                              ; preds = %101
  store i32 1, ptr @exit_code, align 4
  br label %105

105:                                              ; preds = %104, %101
  call void @llvm.lifetime.end.p0(i64 32, ptr %8) #9
  call void @llvm.lifetime.end.p0(i64 4, ptr %7) #9
  ret void
}